; Function Attrs: mustprogress nofree norecurse nosync nounwind willreturn memory(argmem: read) uwtable
define { i64, i64 } @_ZN5arrow15BasicDecimal1283AbsERKS0_(ptr noundef nonnull readonly align 8 captures(none) dereferenceable(16) %0) local_unnamed_addr #7 align 2 personality ptr @__gxx_personality_v0 {
  %.sroa.0.0.copyload1 = load i64, ptr %0, align 8
  %.sroa.6.0..sroa_idx = getelementptr inbounds nuw i8, ptr %0, i64 8
  %.sroa.6.0.copyload = load i64, ptr %.sroa.6.0..sroa_idx, align 8
  %2 = icmp slt i64 %.sroa.6.0.copyload, 0
  br i1 %2, label %_ZN5arrowltERKNS_15BasicDecimal128ES2_.exit.i, label %_ZN5arrow15BasicDecimal1283AbsEv.exit

_ZN5arrowltERKNS_15BasicDecimal128ES2_.exit.i:    ; preds = %1
  %3 = xor i64 %.sroa.6.0.copyload, -1
  %4 = icmp eq i64 %.sroa.0.0.copyload1, 0
  %5 = sub i64 0, %.sroa.6.0.copyload
  %6 = sub i64 0, %.sroa.0.0.copyload1
  %.sroa.6.0.i.i = select i1 %4, i64 %5, i64 %3
  br label %_ZN5arrow15BasicDecimal1283AbsEv.exit

_ZN5arrow15BasicDecimal1283AbsEv.exit:            ; preds = %1, %_ZN5arrowltERKNS_15BasicDecimal128ES2_.exit.i
  %.sroa.6.0 = phi i64 [ %.sroa.6.0.i.i, %_ZN5arrowltERKNS_15BasicDecimal128ES2_.exit.i ], [ %.sroa.6.0.copyload, %1 ]
  %.sroa.0.0 = phi i64 [ %6, %_ZN5arrowltERKNS_15BasicDecimal128ES2_.exit.i ], [ %.sroa.0.0.copyload1, %1 ]
  %.fca.0.insert = insertvalue { i64, i64 } poison, i64 %.sroa.0.0, 0
  %.fca.1.insert = insertvalue { i64, i64 } %.fca.0.insert, i64 %.sroa.6.0, 1
  ret { i64, i64 } %.fca.1.insert
}